; Function Attrs: mustprogress uwtable
define hidden void @_ZN6spacer28lemma_quantifier_generalizerC2ERNS_7contextEb(ptr noundef nonnull align 8 dereferenceable(96) %this, ptr noundef nonnull align 8 dereferenceable(712) %ctx, i1 noundef zeroext %normalize_cube) unnamed_addr #3 align 2 personality ptr @__gxx_personality_v0 {
entry:
  %m_ctx.i = getelementptr inbounds i8, ptr %this, i64 8
  store ptr %ctx, ptr %m_ctx.i, align 8
  store ptr getelementptr inbounds ({ [7 x ptr] }, ptr @_ZTVN6spacer28lemma_quantifier_generalizerE, i64 0, i32 0, i64 2), ptr %this, align 8
  %m = getelementptr inbounds i8, ptr %this, i64 16
  %m.i = getelementptr inbounds i8, ptr %ctx, i64 152
  %0 = load ptr, ptr %m.i, align 8
  store ptr %0, ptr %m, align 8
  %m_arith = getelementptr inbounds i8, ptr %this, i64 24
  tail call void @_ZN10arith_utilC1ER11ast_manager(ptr noundef nonnull align 8 dereferenceable(16) %m_arith, ptr noundef nonnull align 8 dereferenceable(976) %0)
  %m_st = getelementptr inbounds i8, ptr %this, i64 40
  tail call void @llvm.memset.p0.i64(ptr noundef nonnull align 8 dereferenceable(25) %m_st, i8 0, i64 25, i1 false)
  %m_cube = getelementptr inbounds i8, ptr %this, i64 72
  %1 = load ptr, ptr %m, align 8
  %2 = ptrtoint ptr %1 to i64
  store i64 %2, ptr %m_cube, align 8
  %m_nodes.i.i = getelementptr inbounds i8, ptr %this, i64 80
  store ptr null, ptr %m_nodes.i.i, align 8
  %frombool = zext i1 %normalize_cube to i8
  %m_normalize_cube = getelementptr inbounds i8, ptr %this, i64 88
  store i8 %frombool, ptr %m_normalize_cube, align 8
  %m_offset = getelementptr inbounds i8, ptr %this, i64 92
  store i32 0, ptr %m_offset, align 4
  ret void
}